target datalayout = "e-m:e-p270:32:32-p271:32:32-p272:64:64-i64:64-i128:128-f80:128-n8:16:32:64-S128"
target triple = "x86_64-pc-linux-gnu"

%struct.PHP_RIPEMD256_CTX = type { [8 x i32], [2 x i32], [64 x i8] }

; Function Attrs: nounwind uwtable
define dso_local void @PHP_RIPEMD256Update(ptr noundef %0, ptr noundef %1, i64 noundef %2) #0 {
  %4 = alloca ptr, align 8
  %5 = alloca ptr, align 8
  %6 = alloca i64, align 8
  %7 = alloca i32, align 4
  %8 = alloca i32, align 4
  %9 = alloca i64, align 8
  store ptr %0, ptr %4, align 8, !tbaa !4
  store ptr %1, ptr %5, align 8, !tbaa !12
  store i64 %2, ptr %6, align 8, !tbaa !14
  call void @llvm.lifetime.start.p0(i64 4, ptr %7) #5
  call void @llvm.lifetime.start.p0(i64 4, ptr %8) #5
  call void @llvm.lifetime.start.p0(i64 8, ptr %9) #5
  %10 = load ptr, ptr %4, align 8, !tbaa !4
  %11 = getelementptr inbounds nuw %struct.PHP_RIPEMD256_CTX, ptr %10, i32 0, i32 1
  %12 = getelementptr inbounds [2 x i32], ptr %11, i64 0, i64 0
  %13 = load i32, ptr %12, align 4, !tbaa !10
  %14 = lshr i32 %13, 3
  %15 = and i32 %14, 63
  store i32 %15, ptr %7, align 4, !tbaa !10
  %16 = load i64, ptr %6, align 8, !tbaa !14
  %17 = trunc i64 %16 to i32
  %18 = shl i32 %17, 3
  %19 = load ptr, ptr %4, align 8, !tbaa !4
  %20 = getelementptr inbounds nuw %struct.PHP_RIPEMD256_CTX, ptr %19, i32 0, i32 1
  %21 = getelementptr inbounds [2 x i32], ptr %20, i64 0, i64 0
  %22 = load i32, ptr %21, align 4, !tbaa !10
  %23 = add i32 %22, %18
  store i32 %23, ptr %21, align 4, !tbaa !10
  %24 = load i64, ptr %6, align 8, !tbaa !14
  %25 = trunc i64 %24 to i32
  %26 = shl i32 %25, 3
  %27 = icmp ult i32 %23, %26
  br i1 %27, label %28, label %34

28:                                               ; preds = %3
  %29 = load ptr, ptr %4, align 8, !tbaa !4
  %30 = getelementptr inbounds nuw %struct.PHP_RIPEMD256_CTX, ptr %29, i32 0, i32 1
  %31 = getelementptr inbounds [2 x i32], ptr %30, i64 0, i64 1
  %32 = load i32, ptr %31, align 4, !tbaa !10
  %33 = add i32 %32, 1
  store i32 %33, ptr %31, align 4, !tbaa !10
  br label %34

34:                                               ; preds = %28, %3
  %35 = load i64, ptr %6, align 8, !tbaa !14
  %36 = lshr i64 %35, 29
  %37 = trunc i64 %36 to i32
  %38 = load ptr, ptr %4, align 8, !tbaa !4
  %39 = getelementptr inbounds nuw %struct.PHP_RIPEMD256_CTX, ptr %38, i32 0, i32 1
  %40 = getelementptr inbounds [2 x i32], ptr %39, i64 0, i64 1
  %41 = load i32, ptr %40, align 4, !tbaa !10
  %42 = add i32 %41, %37
  store i32 %42, ptr %40, align 4, !tbaa !10
  %43 = load i32, ptr %7, align 4, !tbaa !10
  %44 = sub i32 64, %43
  store i32 %44, ptr %8, align 4, !tbaa !10
  %45 = load i64, ptr %6, align 8, !tbaa !14
  %46 = load i32, ptr %8, align 4, !tbaa !10
  %47 = zext i32 %46 to i64
  %48 = icmp uge i64 %45, %47
  br i1 %48, label %49, label %82

49:                                               ; preds = %34
  %50 = load ptr, ptr %4, align 8, !tbaa !4
  %51 = getelementptr inbounds nuw %struct.PHP_RIPEMD256_CTX, ptr %50, i32 0, i32 2
  %52 = load i32, ptr %7, align 4, !tbaa !10
  %53 = zext i32 %52 to i64
  %54 = getelementptr inbounds nuw [64 x i8], ptr %51, i64 0, i64 %53
  %55 = load ptr, ptr %5, align 8, !tbaa !12
  %56 = load i32, ptr %8, align 4, !tbaa !10
  %57 = zext i32 %56 to i64
  call void @llvm.memcpy.p0.p0.i64(ptr align 1 %54, ptr align 1 %55, i64 %57, i1 false)
  %58 = load ptr, ptr %4, align 8, !tbaa !4
  %59 = getelementptr inbounds nuw %struct.PHP_RIPEMD256_CTX, ptr %58, i32 0, i32 0
  %60 = getelementptr inbounds [8 x i32], ptr %59, i64 0, i64 0
  %61 = load ptr, ptr %4, align 8, !tbaa !4
  %62 = getelementptr inbounds nuw %struct.PHP_RIPEMD256_CTX, ptr %61, i32 0, i32 2
  %63 = getelementptr inbounds [64 x i8], ptr %62, i64 0, i64 0
  call void @RIPEMD256Transform(ptr noundef %60, ptr noundef %63)
  %64 = load i32, ptr %8, align 4, !tbaa !10
  %65 = zext i32 %64 to i64
  store i64 %65, ptr %9, align 8, !tbaa !14
  br label %66

66:                                               ; preds = %78, %49
  %67 = load i64, ptr %9, align 8, !tbaa !14
  %68 = add i64 %67, 63
  %69 = load i64, ptr %6, align 8, !tbaa !14
  %70 = icmp ult i64 %68, %69
  br i1 %70, label %71, label %81

71:                                               ; preds = %66
  %72 = load ptr, ptr %4, align 8, !tbaa !4
  %73 = getelementptr inbounds nuw %struct.PHP_RIPEMD256_CTX, ptr %72, i32 0, i32 0
  %74 = getelementptr inbounds [8 x i32], ptr %73, i64 0, i64 0
  %75 = load ptr, ptr %5, align 8, !tbaa !12
  %76 = load i64, ptr %9, align 8, !tbaa !14
  %77 = getelementptr inbounds nuw i8, ptr %75, i64 %76
  call void @RIPEMD256Transform(ptr noundef %74, ptr noundef %77)
  br label %78

78:                                               ; preds = %71
  %79 = load i64, ptr %9, align 8, !tbaa !14
  %80 = add i64 %79, 64
  store i64 %80, ptr %9, align 8, !tbaa !14
  br label %66

81:                                               ; preds = %66
  store i32 0, ptr %7, align 4, !tbaa !10
  br label %83

82:                                               ; preds = %34
  store i64 0, ptr %9, align 8, !tbaa !14
  br label %83

83:                                               ; preds = %82, %81
  %84 = load ptr, ptr %4, align 8, !tbaa !4
  %85 = getelementptr inbounds nuw %struct.PHP_RIPEMD256_CTX, ptr %84, i32 0, i32 2
  %86 = load i32, ptr %7, align 4, !tbaa !10
  %87 = zext i32 %86 to i64
  %88 = getelementptr inbounds nuw [64 x i8], ptr %85, i64 0, i64 %87
  %89 = load ptr, ptr %5, align 8, !tbaa !12
  %90 = load i64, ptr %9, align 8, !tbaa !14
  %91 = getelementptr inbounds nuw i8, ptr %89, i64 %90
  %92 = load i64, ptr %6, align 8, !tbaa !14
  %93 = load i64, ptr %9, align 8, !tbaa !14
  %94 = sub i64 %92, %93
  call void @llvm.memcpy.p0.p0.i64(ptr align 1 %88, ptr align 1 %91, i64 %94, i1 false)
  call void @llvm.lifetime.end.p0(i64 8, ptr %9) #5
  call void @llvm.lifetime.end.p0(i64 4, ptr %8) #5
  call void @llvm.lifetime.end.p0(i64 4, ptr %7) #5
  ret void
}